; Function Attrs: mustprogress nounwind uwtable
define void @_ZN3fmt3v114fileD2Ev(ptr noundef nonnull readonly align 4 captures(none) dereferenceable(4) %0) unnamed_addr #0 align 2 personality ptr @__gxx_personality_v0 {
  %2 = load i32, ptr %0, align 4, !tbaa !22
  %.not = icmp eq i32 %2, -1
  br i1 %.not, label %9, label %3

3:                                                ; preds = %1
  %4 = invoke i32 @close(i32 noundef %2)
          to label %5 unwind label %10

5:                                                ; preds = %3
  %.not1 = icmp eq i32 %4, 0
  br i1 %.not1, label %9, label %6

6:                                                ; preds = %5
  %7 = tail call ptr @__errno_location() #16
  %8 = load i32, ptr %7, align 4, !tbaa !9
  tail call void @_ZN3fmt3v1119report_system_errorEiPKc(i32 noundef %8, ptr noundef nonnull @.str) #17
  br label %9

9:                                                ; preds = %6, %5, %1
  ret void

10:                                               ; preds = %3
  %11 = landingpad { ptr, i32 }
          catch ptr null
  %12 = extractvalue { ptr, i32 } %11, 0
  tail call void @__clang_call_terminate(ptr %12) #18
  unreachable
}